ccopy_reg
_reconstructor
p1
(cdebian_linux.config
ConfigCore
p2
c__builtin__
dict
p3
(dp4
(S'image'
p5
S'amd64'
p6
tp7
(dp8
S'suggests'
p9
S'crda'
p10
sS'configs'
p11
(lp12
S'kernelarch-x86/config'
p13
asS'bootloaders'
p14
(lp15
S'grub-pc'
p16
aS'extlinux'
p17
aS'grub-efi-amd64'
p18
ass(S'image'
S'i386'
p19
NS'desktop-686'
tp20
(dp21
S'configs'
p22
(lp23
S'kernelarch-x86/config-arch-32'
p24
asS'recommends'
p25
S'libc6-i686'
p26
ss(S'base'
p27
g6
S'none'
p28
tp29
(dp30
S'implicit-flavour'
p31
I01
sS'flavours'
p32
(lp33
S'desktop-amd64'
p34
ass(S'base'
p35
g6
tp36
(dp37
S'kernel-arch'
p38
S'x86'
p39
sS'featuresets'
p40
(lp41
g28
ass(S'image'
p42
tp43
(dp44
S'initramfs-generators'
p45
(lp46
S'initramfs-tools'
p47
aS'initramfs-fallback'
p48
asS'type'
p49
S'plain'
p50
ss(S'description'
g19
NS'desktop-686'
tp51
(dp52
S'hardware'
p53
S'modern PCs'
p54
sS'hardware-long'
p55
S'PCs with Intel Pentium Pro/II/III/4/4M/D/M, Xeon, Celeron, Core or Atom; AMD Geode LX/NX, Athlon (K7), Duron, Opteron, Sempron, Turion or Phenom; Transmeta Efficeon; VIA C3 "Nehemiah" or C7 processors'
p56
ss(S'version'
p57
tp58
(dp59
S'abiname'
p60
S'3.14-6.semplice.0'
p61
sS'source'
p62
V3.14.6-1
p63
ss(S'base'
g19
tp64
(dp65
S'kernel-arch'
p66
S'x86'
p67
sg40
(lp68
g28
ass(S'build'
g19
NS'desktop-686'
tp69
(dp70
S'debug-info'
p71
I00
ss(S'image'
g6
NS'desktop-amd64'
tp72
(dp73
S'configs'
p74
(lp75
S'kernelarch-x86/config-arch-64'
p76
ass(S'description'
g6
NS'desktop-amd64'
tp77
(dp78
S'hardware'
p79
S'64-bit PCs'
p80
sS'hardware-long'
p81
S'PCs with AMD64 or Intel 64 processors'
p82
ss(S'abi'
p83
tp84
(dp85
S'abiname'
p86
S'6.semplice.0'
p87
ss(S'image'
g19
tp88
(dp89
S'suggests'
p90
S'crda'
p91
sS'configs'
p92
(lp93
S'kernelarch-x86/config'
p94
asS'bootloaders'
p95
(lp96
S'grub-pc'
p97
aS'extlinux'
p98
ass(g27
g19
g28
tp99
(dp100
g31
I01
sg32
(lp101
S'desktop-686'
p102
ass(S'build'
g6
NS'desktop-amd64'
tp103
(dp104
S'debug-info'
p105
I00
ss(S'base'
p106
tp107
(dp108
S'arches'
p109
(lp110
S'amd64'
p111
aS'i386'
p112
asS'featuresets'
p113
(lp114
S'none'
p115
asS'compiler'
p116
S'gcc-4.8'
p117
ss(S'relations'
p118
tp119
(dp120
S'initramfs-fallback'
p121
S'linux-initramfs-tool'
p122
sS'lilo'
p123
S'lilo (>= 22.8-8.2~)'
p124
sS'gcc-4.8'
p125
S'gcc-4.8'
p126
sS'initramfs-tools'
p127
S'initramfs-tools (>= 0.110~)'
p128
sS'elilo'
p129
S'elilo (>= 3.12-3.1~)'
p130
sstRp131
.