ccopy_reg
_reconstructor
p1
(cdebian_linux.config
ConfigCore
p2
c__builtin__
dict
p3
(dp4
(S'image'
S'amd64'
p5
tp6
(dp7
S'suggests'
p8
S'crda'
p9
sS'configs'
p10
(lp11
S'kernelarch-x86/config'
p12
asS'bootloaders'
p13
(lp14
S'grub-pc'
p15
aS'extlinux'
p16
aS'grub-efi-amd64'
p17
ass(S'description'
S'i386'
p18
NS'desktop-686'
tp19
(dp20
S'hardware'
p21
S'modern PCs'
p22
sS'hardware-long'
p23
S'PCs with Intel Pentium Pro/II/III/4/4M/D/M, Xeon, Celeron, Core or Atom; AMD Geode LX/NX, Athlon (K7), Duron, Opteron, Sempron, Turion or Phenom; Transmeta Efficeon; VIA C3 "Nehemiah" or C7 processors'
p24
ss(S'base'
p25
g5
S'none'
p26
tp27
(dp28
S'implicit-flavour'
p29
I01
sS'flavours'
p30
(lp31
S'desktop-amd64'
p32
ass(S'base'
g5
tp33
(dp34
S'kernel-arch'
p35
S'x86'
p36
sS'featuresets'
p37
(lp38
g26
ass(S'image'
p39
tp40
(dp41
S'initramfs-generators'
p42
(lp43
S'initramfs-tools'
p44
aS'initramfs-fallback'
p45
asS'type'
p46
S'plain'
p47
ss(S'description'
g5
NS'desktop-amd64'
tp48
(dp49
S'hardware'
p50
S'64-bit PCs'
p51
sS'hardware-long'
p52
S'PCs with AMD64 or Intel 64 processors'
p53
ss(S'build'
g18
NS'desktop-686'
tp54
(dp55
S'debug-info'
p56
I00
ss(S'version'
p57
tp58
(dp59
S'abiname'
p60
S'3.13-4.semplice.0'
p61
sS'source'
p62
V3.13.9-1
p63
ss(S'base'
p64
g18
tp65
(dp66
S'kernel-arch'
p67
S'x86'
p68
sg37
(lp69
g26
ass(S'image'
g5
NS'desktop-amd64'
tp70
(dp71
S'configs'
p72
(lp73
S'kernelarch-x86/config-arch-64'
p74
ass(S'build'
g5
NS'desktop-amd64'
tp75
(dp76
S'debug-info'
p77
I00
ss(S'image'
g18
NS'desktop-686'
tp78
(dp79
S'configs'
p80
(lp81
S'kernelarch-x86/config-arch-32'
p82
asS'recommends'
p83
S'libc6-i686'
p84
ss(S'abi'
p85
tp86
(dp87
S'abiname'
p88
S'4.semplice.0'
p89
ss(S'image'
p90
g18
tp91
(dp92
S'suggests'
p93
S'crda'
p94
sS'configs'
p95
(lp96
S'kernelarch-x86/config'
p97
asS'bootloaders'
p98
(lp99
S'grub-pc'
p100
aS'extlinux'
p101
ass(g25
g18
g26
tp102
(dp103
g29
I01
sg30
(lp104
S'desktop-686'
p105
ass(S'base'
p106
tp107
(dp108
S'arches'
p109
(lp110
S'amd64'
p111
aS'i386'
p112
asS'featuresets'
p113
(lp114
S'none'
p115
asS'compiler'
p116
S'gcc-4.8'
p117
ss(S'relations'
p118
tp119
(dp120
S'initramfs-fallback'
p121
S'linux-initramfs-tool'
p122
sS'lilo'
p123
S'lilo (>= 22.8-8.2~)'
p124
sS'gcc-4.8'
p125
S'gcc-4.8'
p126
sS'initramfs-tools'
p127
S'initramfs-tools (>= 0.110~)'
p128
sS'elilo'
p129
S'elilo (>= 3.12-3.1~)'
p130
sstRp131
.