ccopy_reg
_reconstructor
p1
(cdebian_linux.config
ConfigCore
p2
c__builtin__
dict
p3
(dp4
(S'image'
S'amd64'
p5
tp6
(dp7
S'suggests'
p8
S'crda'
p9
sS'configs'
p10
(lp11
S'kernelarch-x86/config'
p12
asS'bootloaders'
p13
(lp14
S'grub-pc'
p15
aS'extlinux'
p16
aS'grub-efi-amd64'
p17
ass(S'image'
g5
NS'desktop-amd64'
tp18
(dp19
S'configs'
p20
(lp21
S'kernelarch-x86/config-arch-64'
p22
ass(S'build'
g5
NS'desktop-amd64'
tp23
(dp24
S'debug-info'
p25
I00
ss(S'base'
g5
tp26
(dp27
S'kernel-arch'
p28
S'x86'
p29
sS'featuresets'
p30
(lp31
S'none'
p32
ass(S'image'
p33
tp34
(dp35
S'initramfs-generators'
p36
(lp37
S'initramfs-tools'
p38
aS'initramfs-fallback'
p39
asS'type'
p40
S'plain'
p41
ss(S'version'
p42
tp43
(dp44
S'abiname'
p45
S'3.14-4.semplice.0'
p46
sS'source'
p47
V3.14.4-1
p48
ss(S'description'
S'i386'
p49
NS'desktop-686'
tp50
(dp51
S'hardware'
p52
S'modern PCs'
p53
sS'hardware-long'
p54
S'PCs with Intel Pentium Pro/II/III/4/4M/D/M, Xeon, Celeron, Core or Atom; AMD Geode LX/NX, Athlon (K7), Duron, Opteron, Sempron, Turion or Phenom; Transmeta Efficeon; VIA C3 "Nehemiah" or C7 processors'
p55
ss(S'image'
g49
NS'desktop-686'
tp56
(dp57
S'configs'
p58
(lp59
S'kernelarch-x86/config-arch-32'
p60
asS'recommends'
p61
S'libc6-i686'
p62
ss(S'base'
p63
g49
tp64
(dp65
S'kernel-arch'
p66
S'x86'
p67
sg30
(lp68
g32
ass(S'base'
p69
tp70
(dp71
S'arches'
p72
(lp73
S'amd64'
p74
aS'i386'
p75
asS'featuresets'
p76
(lp77
S'none'
p78
asS'compiler'
p79
S'gcc-4.8'
p80
ss(S'build'
g49
NS'desktop-686'
tp81
(dp82
S'debug-info'
p83
I00
ss(S'abi'
p84
tp85
(dp86
S'abiname'
p87
S'4.semplice.0'
p88
ss(S'image'
p89
g49
tp90
(dp91
S'suggests'
p92
S'crda'
p93
sS'configs'
p94
(lp95
S'kernelarch-x86/config'
p96
asS'bootloaders'
p97
(lp98
S'grub-pc'
p99
aS'extlinux'
p100
ass(S'base'
p101
g49
g32
tp102
(dp103
S'implicit-flavour'
p104
I01
sS'flavours'
p105
(lp106
S'desktop-686'
p107
ass(g101
g5
g32
tp108
(dp109
g104
I01
sg105
(lp110
S'desktop-amd64'
p111
ass(S'description'
g5
NS'desktop-amd64'
tp112
(dp113
S'hardware'
p114
S'64-bit PCs'
p115
sS'hardware-long'
p116
S'PCs with AMD64 or Intel 64 processors'
p117
ss(S'relations'
p118
tp119
(dp120
S'initramfs-fallback'
p121
S'linux-initramfs-tool'
p122
sS'lilo'
p123
S'lilo (>= 22.8-8.2~)'
p124
sS'gcc-4.8'
p125
S'gcc-4.8'
p126
sS'initramfs-tools'
p127
S'initramfs-tools (>= 0.110~)'
p128
sS'elilo'
p129
S'elilo (>= 3.12-3.1~)'
p130
sstRp131
.