ccopy_reg
_reconstructor
p1
(cdebian_linux.config
ConfigCore
p2
c__builtin__
dict
p3
(dp4
(S'image'
S'amd64'
p5
tp6
(dp7
S'suggests'
p8
S'crda'
p9
sS'configs'
p10
(lp11
S'kernelarch-x86/config'
p12
asS'bootloaders'
p13
(lp14
S'grub-pc'
p15
aS'extlinux'
p16
aS'grub-efi-amd64'
p17
ass(S'base'
p18
g5
S'none'
p19
tp20
(dp21
S'implicit-flavour'
p22
I01
sS'flavours'
p23
(lp24
S'desktop-amd64'
p25
ass(S'image'
S'i386'
p26
NS'desktop-686'
tp27
(dp28
S'configs'
p29
(lp30
S'kernelarch-x86/config-arch-32'
p31
asS'recommends'
p32
S'libc6-i686'
p33
ss(S'base'
g5
tp34
(dp35
S'kernel-arch'
p36
S'x86'
p37
sS'featuresets'
p38
(lp39
g19
ass(S'build'
g5
NS'desktop-amd64'
tp40
(dp41
S'debug-info'
p42
I00
ss(S'image'
p43
tp44
(dp45
S'initramfs-generators'
p46
(lp47
S'initramfs-tools'
p48
aS'initramfs-fallback'
p49
asS'type'
p50
S'plain'
p51
ss(S'description'
g26
NS'desktop-686'
tp52
(dp53
S'hardware'
p54
S'modern PCs'
p55
sS'hardware-long'
p56
S'PCs with Intel Pentium Pro/II/III/4/4M/D/M, Xeon, Celeron, Core or Atom; AMD Geode LX/NX, Athlon (K7), Duron, Opteron, Sempron, Turion or Phenom; Transmeta Efficeon; VIA C3 "Nehemiah" or C7 processors'
p57
ss(S'version'
p58
tp59
(dp60
S'abiname'
p61
S'3.12-5.semplice.0'
p62
sS'source'
p63
V3.12.5-2
p64
ss(S'image'
g5
NS'desktop-amd64'
tp65
(dp66
S'configs'
p67
(lp68
S'kernelarch-x86/config-arch-64'
p69
ass(S'description'
g5
NS'desktop-amd64'
tp70
(dp71
S'hardware'
p72
S'64-bit PCs'
p73
sS'hardware-long'
p74
S'PCs with AMD64 or Intel 64 processors'
p75
ss(S'base'
p76
g26
tp77
(dp78
S'kernel-arch'
p79
S'x86'
p80
sg38
(lp81
g19
ass(S'abi'
p82
tp83
(dp84
S'abiname'
p85
S'5.semplice.0'
p86
ss(S'image'
p87
g26
tp88
(dp89
S'suggests'
p90
S'crda'
p91
sS'configs'
p92
(lp93
S'kernelarch-x86/config'
p94
asS'bootloaders'
p95
(lp96
S'grub-pc'
p97
aS'extlinux'
p98
ass(g18
g26
g19
tp99
(dp100
g22
I01
sg23
(lp101
S'desktop-686'
p102
ass(S'build'
g26
NS'desktop-686'
tp103
(dp104
S'debug-info'
p105
I00
ss(S'base'
p106
tp107
(dp108
S'arches'
p109
(lp110
S'amd64'
p111
aS'i386'
p112
asS'featuresets'
p113
(lp114
S'none'
p115
asS'compiler'
p116
S'gcc-4.8'
p117
ss(S'relations'
p118
tp119
(dp120
S'initramfs-fallback'
p121
S'linux-initramfs-tool'
p122
sS'lilo'
p123
S'lilo (>= 22.8-8.2~)'
p124
sS'gcc-4.8'
p125
S'gcc-4.8'
p126
sS'initramfs-tools'
p127
S'initramfs-tools (>= 0.110~)'
p128
sS'elilo'
p129
S'elilo (>= 3.12-3.1~)'
p130
sstRp131
.